(i__main__
LogFile
p0
(dp1
S'_installed_files'
p2
(dp3
S'../EnergyRec/GhRec/OMILREC_AC_FastRun_LTSmear_Q/python'
p4
(dp5
S'../../../EnergyRec/GhRec/OMILREC_AC_FastRun_LTSmear_Q/python/OMILREC/__init__.py'
p6
S'../../../../InstallArea/python/OMILREC/__init__.py'
p7
ssS'../EnergyRec/GhRec/GenChargePDF/python'
p8
(dp9
S'../../../EnergyRec/GhRec/GenChargePDF/python/OMILREC/__init__.py'
p10
S'../../../../InstallArea/python/OMILREC/__init__.py'
p11
ssS'../EnergyRec/GhRec/GenQPDF_batch/python'
p12
(dp13
S'../../../EnergyRec/GhRec/GenQPDF_batch/python/GenQPDF/__init__.py'
p14
S'../../../../InstallArea/python/GenQPDF/__init__.py'
p15
ssS'../../../EnergyRec/GhRec/GenQPDF/amd64_linux26/libGenQPDF.so'
p16
S'../../../../InstallArea/amd64_linux26/lib/libGenQPDF.so'
p17
sS'../../../EnergyRec/GhRec/OMILREC_AC_FastRun_LTSmear_Q/amd64_linux26/libOMILREC.so'
p18
S'../../../../InstallArea/amd64_linux26/lib/libOMILREC.so'
p19
sS'../../../OMILREC/amd64_linux26/libQMLE.so'
p20
S'../../InstallArea/amd64_linux26/lib/libQMLE.so'
p21
sS'../../../EnergyRec/GhRec/GenQPDF_batch/amd64_linux26/libGenQPDF.so'
p22
S'../../../../InstallArea/amd64_linux26/lib/libGenQPDF.so'
p23
sS'../../../EnergyRec/GhRec/OMILREC_AC_FastRun_LTSmear/amd64_linux26/libOMILREC.so'
p24
S'../../../../InstallArea/amd64_linux26/lib/libOMILREC.so'
p25
sS'../EnergyRec/WJRec/OMILREC_ACU_CLS_Calib/python'
p26
(dp27
S'../../../EnergyRec/WJRec/OMILREC_ACU_CLS_Calib/python/OMILREC/__init__.py'
p28
S'../../../../InstallArea/python/OMILREC/__init__.py'
p29
ssS'../QMLE/python'
p30
(dp31
S'../../../QMLE/python/QMLE/__init__.py'
p32
S'../../InstallArea/python/QMLE/__init__.py'
p33
ssS'../../../EnergyRec/GhRec/OMILREC_AC_FastRun_GausSmear/amd64_linux26/libOMILREC.so'
p34
S'../../../../InstallArea/amd64_linux26/lib/libOMILREC.so'
p35
sS'../../../EnergyRec/GhRec/OMILREC_AC_FastRun_LTSmear_FreeRE/amd64_linux26/libOMILREC.so'
p36
S'../../../../InstallArea/amd64_linux26/lib/libOMILREC.so'
p37
sS'../../../EnergyRec/GhRec/OMILREC_ACU_CLS_Calib/amd64_linux26/libOMILREC.so'
p38
S'../../../../InstallArea/amd64_linux26/lib/libOMILREC.so'
p39
sS'../../../EnergyRec/GhRec/OMILREC_AC_FastRun_LTSmear_FreeRE_DM/amd64_linux26/libOMILREC.so'
p40
S'../../../../InstallArea/amd64_linux26/lib/libOMILREC.so'
p41
sS'../../../QMLE/amd64_linux26/libQMLE.so'
p42
S'../../InstallArea/amd64_linux26/lib/libQMLE.so'
p43
sS'../EnergyRec/GhRec/OMILREC_AC_FastRun/python'
p44
(dp45
S'../../../EnergyRec/GhRec/OMILREC_AC_FastRun/python/OMILREC/__init__.py'
p46
S'../../../../InstallArea/python/OMILREC/__init__.py'
p47
ssS'../../../OMILREC/amd64_linux26/libOMILREC.so'
p48
S'../../InstallArea/amd64_linux26/lib/libOMILREC.so'
p49
sS'../../../EnergyRec/GhRec/Q-OMILREC-J19v1r0-Pre2/amd64_linux26/libOMILREC.so'
p50
S'../../../../InstallArea/amd64_linux26/lib/libOMILREC.so'
p51
sS'../EnergyRec/GhRec/OMILREC_AC_FastRun_LTSmear/python'
p52
(dp53
S'../../../EnergyRec/GhRec/OMILREC_AC_FastRun_LTSmear/python/OMILREC/__init__.py'
p54
S'../../../../InstallArea/python/OMILREC/__init__.py'
p55
ssS'../../../EnergyRec/WJRec/OMILREC_ACU_CLS_Calib/amd64_linux26/libOMILREC.so'
p56
S'../../../../InstallArea/amd64_linux26/lib/libOMILREC.so'
p57
sS'../EnergyRec/GhRec/Q-OMILREC-J19v1r0-Pre2/python'
p58
(dp59
S'../../../EnergyRec/GhRec/Q-OMILREC-J19v1r0-Pre2/python/OMILREC/__init__.py'
p60
S'../../../../InstallArea/python/OMILREC/__init__.py'
p61
ssS'../EnergyRec/GhRec/OMILREC_AC_FastRun_GausSmear/python'
p62
(dp63
S'../../../EnergyRec/GhRec/OMILREC_AC_FastRun_GausSmear/python/OMILREC/__init__.py'
p64
S'../../../../InstallArea/python/OMILREC/__init__.py'
p65
ssS'../EnergyRec/GhRec/OMILREC_AC_FastRun_LTSmear_FreeRE_DM/python'
p66
(dp67
S'../../../EnergyRec/GhRec/OMILREC_AC_FastRun_LTSmear_FreeRE_DM/python/OMILREC/__init__.py'
p68
S'../../../../InstallArea/python/OMILREC/__init__.py'
p69
ssS'../EnergyRec/GhRec/OMILREC_ACU_CLS_Calib/python'
p70
(dp71
S'../../../EnergyRec/GhRec/OMILREC_ACU_CLS_Calib/python/OMILREC/__init__.py'
p72
S'../../../../InstallArea/python/OMILREC/__init__.py'
p73
ssS'../EnergyRec/GhRec/OMILREC_AC_FastRun_LTSmear_FreeRE/python'
p74
(dp75
S'../../../EnergyRec/GhRec/OMILREC_AC_FastRun_LTSmear_FreeRE/python/OMILREC/__init__.py'
p76
S'../../../../InstallArea/python/OMILREC/__init__.py'
p77
ssS'../../../EnergyRec/GhRec/OMILREC_AC_FastRun/amd64_linux26/libOMILREC.so'
p78
S'../../../../InstallArea/amd64_linux26/lib/libOMILREC.so'
p79
sS'../../../EnergyRec/GhRec/GenChargePDF/amd64_linux26/libOMILREC.so'
p80
S'../../../../InstallArea/amd64_linux26/lib/libOMILREC.so'
p81
sS'../OMILREC/python'
p82
(dp83
S'../../../OMILREC/python/OMILREC/__init__.py'
p84
S'../../InstallArea/python/OMILREC/__init__.py'
p85
ssS'../EnergyRec/GhRec/GenQPDF/python'
p86
(dp87
S'../../../EnergyRec/GhRec/GenQPDF/python/GenQPDF/__init__.py'
p88
S'../../../../InstallArea/python/GenQPDF/__init__.py'
p89
sssb.